target datalayout = "e-m:e-p270:32:32-p271:32:32-p272:64:64-i64:64-i128:128-f80:128-n8:16:32:64-S128"
target triple = "x86_64-pc-linux-gnu"

%struct._zval_struct = type { %union._zend_value, %union.anon, %union.anon.3 }
%union._zend_value = type { i64 }
%union.anon = type { i32 }
%union.anon.3 = type { i32 }
%struct._zend_refcounted_h = type { i32, %union.anon.4 }
%union.anon.4 = type { i32 }
%struct.anon.1 = type { i8, i8, %union.anon.2 }
%union.anon.2 = type { i16 }
%struct._zend_string = type { %struct._zend_refcounted_h, i64, i64, [1 x i8] }

; Function Attrs: alwaysinline nounwind uwtable
define internal zeroext i8 @zval_get_type(ptr noundef %0) #1 {
  %2 = alloca ptr, align 8
  store ptr %0, ptr %2, align 8, !tbaa !9
  %3 = load ptr, ptr %2, align 8, !tbaa !9
  %4 = getelementptr inbounds nuw %struct._zval_struct, ptr %3, i32 0, i32 1
  %5 = getelementptr inbounds nuw %struct.anon.1, ptr %4, i32 0, i32 0
  %6 = load i8, ptr %5, align 8, !tbaa !17
  ret i8 %6
}

; Function Attrs: nounwind uwtable
define hidden i32 @zend_optimizer_eval_strlen(ptr noundef %0, ptr noundef %1) #0 {
  %3 = alloca i32, align 4
  %4 = alloca ptr, align 8
  %5 = alloca ptr, align 8
  %6 = alloca ptr, align 8
  store ptr %0, ptr %4, align 8, !tbaa !9
  store ptr %1, ptr %5, align 8, !tbaa !9
  %7 = load ptr, ptr %5, align 8, !tbaa !9
  %8 = call zeroext i8 @zval_get_type(ptr noundef %7)
  %9 = zext i8 %8 to i32
  %10 = icmp ne i32 %9, 6
  br i1 %10, label %11, label %12

11:                                               ; preds = %2
  store i32 -1, ptr %3, align 4
  br label %25

12:                                               ; preds = %2
  br label %13

13:                                               ; preds = %12
  call void @llvm.lifetime.start.p0(i64 8, ptr %6) #13
  %14 = load ptr, ptr %4, align 8, !tbaa !9
  store ptr %14, ptr %6, align 8, !tbaa !9
  %15 = load ptr, ptr %5, align 8, !tbaa !9
  %16 = getelementptr inbounds nuw %struct._zval_struct, ptr %15, i32 0, i32 0
  %17 = load ptr, ptr %16, align 8, !tbaa !17
  %18 = getelementptr inbounds nuw %struct._zend_string, ptr %17, i32 0, i32 2
  %19 = load i64, ptr %18, align 8, !tbaa !39
  %20 = load ptr, ptr %6, align 8, !tbaa !9
  %21 = getelementptr inbounds nuw %struct._zval_struct, ptr %20, i32 0, i32 0
  store i64 %19, ptr %21, align 8, !tbaa !17
  %22 = load ptr, ptr %6, align 8, !tbaa !9
  %23 = getelementptr inbounds nuw %struct._zval_struct, ptr %22, i32 0, i32 1
  store i32 4, ptr %23, align 8, !tbaa !17
  call void @llvm.lifetime.end.p0(i64 8, ptr %6) #13
  br label %24

24:                                               ; preds = %13
  store i32 0, ptr %3, align 4
  br label %25

25:                                               ; preds = %24, %11
  %26 = load i32, ptr %3, align 4
  ret i32 %26
}