; Function Attrs: mustprogress nofree norecurse nosync nounwind willreturn memory(read, argmem: readwrite, inaccessiblemem: none) uwtable
define hidden range(i32 -1, 1) i32 @zend_optimizer_eval_strlen(ptr noundef writeonly captures(none) %0, ptr noundef readonly captures(none) %1) local_unnamed_addr #4 {
  %3 = getelementptr inbounds nuw i8, ptr %1, i64 8
  %4 = load i8, ptr %3, align 8, !tbaa !20
  %.not = icmp eq i8 %4, 6
  br i1 %.not, label %5, label %10

5:                                                ; preds = %2
  %6 = load ptr, ptr %1, align 8, !tbaa !20
  %7 = getelementptr inbounds nuw i8, ptr %6, i64 16
  %8 = load i64, ptr %7, align 8, !tbaa !25
  store i64 %8, ptr %0, align 8, !tbaa !20
  %9 = getelementptr inbounds nuw i8, ptr %0, i64 8
  store i32 4, ptr %9, align 8, !tbaa !20
  br label %10

10:                                               ; preds = %2, %5
  %.0 = phi i32 [ 0, %5 ], [ -1, %2 ]
  ret i32 %.0
}